target datalayout = "e-m:e-p270:32:32-p271:32:32-p272:64:64-i64:64-i128:128-f80:128-n8:16:32:64-S128"
target triple = "x86_64-pc-linux-gnu"

%struct.asn1_string_st = type { i32, i32, ptr, i64 }
%struct.x509_revoked_st = type { %struct.asn1_string_st, ptr, ptr, ptr, i32, i32 }

; Function Attrs: nounwind uwtable
define i32 @X509_REVOKED_set_revocationDate(ptr noundef %0, ptr noundef %1) #0 {
  %3 = alloca i32, align 4
  %4 = alloca ptr, align 8
  %5 = alloca ptr, align 8
  store ptr %0, ptr %4, align 8, !tbaa !35
  store ptr %1, ptr %5, align 8, !tbaa !32
  %6 = load ptr, ptr %4, align 8, !tbaa !35
  %7 = icmp eq ptr %6, null
  br i1 %7, label %11, label %8

8:                                                ; preds = %2
  %9 = load ptr, ptr %5, align 8, !tbaa !32
  %10 = icmp eq ptr %9, null
  br i1 %10, label %11, label %12

11:                                               ; preds = %8, %2
  store i32 0, ptr %3, align 4
  br label %17

12:                                               ; preds = %8
  %13 = load ptr, ptr %4, align 8, !tbaa !35
  %14 = getelementptr inbounds nuw %struct.x509_revoked_st, ptr %13, i32 0, i32 1
  %15 = load ptr, ptr %5, align 8, !tbaa !32
  %16 = call i32 @ossl_x509_set1_time(ptr noundef null, ptr noundef %14, ptr noundef %15)
  store i32 %16, ptr %3, align 4
  br label %17

17:                                               ; preds = %12, %11
  %18 = load i32, ptr %3, align 4
  ret i32 %18
}